; Function Attrs: mustprogress nofree norecurse nosync nounwind willreturn memory(argmem: readwrite, inaccessiblemem: readwrite) uwtable
define void @_ZNK6icu_776number17FractionPrecision13withMaxDigitsEi(ptr dead_on_unwind noalias writable writeonly sret(%"class.icu_77::number::Precision") align 8 captures(none) initializes((0, 4), (8, 12), (24, 28)) %0, ptr noundef nonnull readonly align 8 captures(none) dereferenceable(28) %1, i32 noundef %2) local_unnamed_addr #16 align 2 {
  %4 = load i32, ptr %1, align 8, !tbaa !27
  %5 = icmp eq i32 %4, 9
  br i1 %5, label %6, label %7

6:                                                ; preds = %3
  tail call void @llvm.memcpy.p0.p0.i64(ptr noundef nonnull align 8 dereferenceable(32) %0, ptr noundef nonnull align 8 dereferenceable(32) %1, i64 32, i1 false)
  br label %18

7:                                                ; preds = %3
  %8 = add i32 %2, -1
  %or.cond = icmp ult i32 %8, 999
  br i1 %or.cond, label %9, label %15

9:                                                ; preds = %7
  tail call void @llvm.experimental.noalias.scope.decl(metadata !71)
  %10 = getelementptr inbounds nuw i8, ptr %1, i64 8
  %11 = load i32, ptr %10, align 8, !noalias !71
  %.sroa.8.0..sroa_idx.i = getelementptr inbounds nuw i8, ptr %1, i64 21
  %.sroa.9.0..sroa_idx.i = getelementptr inbounds nuw i8, ptr %0, i64 21
  tail call void @llvm.memcpy.p0.p0.i64(ptr noundef nonnull align 1 dereferenceable(3) %.sroa.9.0..sroa_idx.i, ptr noundef nonnull readonly align 1 dereferenceable(3) %.sroa.8.0..sroa_idx.i, i64 3, i1 false)
  %12 = trunc nuw i32 %2 to i16
  store i32 4, ptr %0, align 8, !tbaa !27, !alias.scope !71
  %13 = getelementptr inbounds nuw i8, ptr %0, i64 8
  store i32 %11, ptr %13, align 8, !alias.scope !71
  %.sroa.5.0..sroa_idx.i = getelementptr inbounds nuw i8, ptr %0, i64 12
  store i16 1, ptr %.sroa.5.0..sroa_idx.i, align 4, !alias.scope !71
  %.sroa.6.0..sroa_idx.i = getelementptr inbounds nuw i8, ptr %0, i64 14
  store i16 %12, ptr %.sroa.6.0..sroa_idx.i, align 2, !alias.scope !71
  %.sroa.7.0..sroa_idx.i = getelementptr inbounds nuw i8, ptr %0, i64 16
  store i32 1, ptr %.sroa.7.0..sroa_idx.i, align 8, !alias.scope !71
  %.sroa.814.0..sroa_idx.i = getelementptr inbounds nuw i8, ptr %0, i64 20
  store i8 1, ptr %.sroa.814.0..sroa_idx.i, align 4, !alias.scope !71
  %14 = getelementptr inbounds nuw i8, ptr %0, i64 24
  store i32 0, ptr %14, align 8, !tbaa !31, !alias.scope !71
  br label %18

15:                                               ; preds = %7
  store i32 9, ptr %0, align 8, !tbaa !27
  %16 = getelementptr inbounds nuw i8, ptr %0, i64 24
  store i32 0, ptr %16, align 8, !tbaa !31
  %17 = getelementptr inbounds nuw i8, ptr %0, i64 8
  store i32 65810, ptr %17, align 8, !tbaa !17
  br label %18

18:                                               ; preds = %15, %9, %6
  ret void
}